target datalayout = "e-m:e-p270:32:32-p271:32:32-p272:64:64-i64:64-i128:128-f80:128-n8:16:32:64-S128"
target triple = "x86_64-pc-linux-gnu"

%struct.H5FD_onion_header_t = type { i8, i32, i32, i64, i64, i64, i32 }

@H5FD_init_g = external global i8, align 1
@H5_libterm_g = external global i8, align 1
@.str = private unnamed_addr constant [110 x i8] c"generated/home/dtcxzyw/WorkSpace/Projects/compilers/llvm-opt-benchmark/bench/hdf5/hdf5/src/H5FDonion_header.c\00", align 1
@__func__.H5FD__onion_ingest_header = private unnamed_addr constant [26 x i8] c"H5FD__onion_ingest_header\00", align 1
@H5E_ARGS_g = external global i64, align 8
@H5E_BADVALUE_g = external global i64, align 8
@.str.1 = private unnamed_addr constant [36 x i8] c"header indicates history beyond EOF\00", align 1
@H5E_VFL_g = external global i64, align 8
@H5E_CANTALLOC_g = external global i64, align 8
@.str.2 = private unnamed_addr constant [28 x i8] c"can't allocate buffer space\00", align 1
@H5E_CANTSET_g = external global i64, align 8
@.str.3 = private unnamed_addr constant [17 x i8] c"can't modify EOA\00", align 1
@H5E_READERROR_g = external global i64, align 8
@.str.4 = private unnamed_addr constant [36 x i8] c"can't read history header from file\00", align 1
@H5E_CANTDECODE_g = external global i64, align 8
@.str.5 = private unnamed_addr constant [28 x i8] c"can't decode history header\00", align 1
@.str.6 = private unnamed_addr constant [44 x i8] c"checksum mismatch between buffer and stored\00", align 1

; Function Attrs: nounwind uwtable
define i32 @H5FD__onion_ingest_header(ptr noundef %0, ptr noundef %1, i64 noundef %2) #0 {
  %4 = alloca ptr, align 8
  %5 = alloca ptr, align 8
  %6 = alloca i64, align 8
  %7 = alloca ptr, align 8
  %8 = alloca i32, align 4
  %9 = alloca i64, align 8
  %10 = alloca i32, align 4
  %11 = alloca i8, align 1
  store ptr %0, ptr %4, align 8, !tbaa !3
  store ptr %1, ptr %5, align 8, !tbaa !8
  store i64 %2, ptr %6, align 8, !tbaa !10
  call void @llvm.lifetime.start.p0(i64 8, ptr %7) #7
  store ptr null, ptr %7, align 8, !tbaa !12
  call void @llvm.lifetime.start.p0(i64 4, ptr %8) #7
  store i32 0, ptr %8, align 4, !tbaa !14
  call void @llvm.lifetime.start.p0(i64 8, ptr %9) #7
  store i64 40, ptr %9, align 8, !tbaa !10
  call void @llvm.lifetime.start.p0(i64 4, ptr %10) #7
  store i32 0, ptr %10, align 4, !tbaa !14
  call void @llvm.lifetime.start.p0(i64 1, ptr %11) #7
  store i8 0, ptr %11, align 1, !tbaa !16
  %12 = load i8, ptr @H5FD_init_g, align 1, !tbaa !16, !range !18, !noundef !19
  %13 = trunc i8 %12 to i1
  br i1 %13, label %18, label %14

14:                                               ; preds = %3
  %15 = load i8, ptr @H5_libterm_g, align 1, !tbaa !16, !range !18, !noundef !19
  %16 = trunc i8 %15 to i1
  %17 = xor i1 %16, true
  br label %18

18:                                               ; preds = %14, %3
  %19 = phi i1 [ true, %3 ], [ %17, %14 ]
  %20 = xor i1 %19, true
  %21 = xor i1 %20, true
  %22 = zext i1 %21 to i32
  %23 = sext i32 %22 to i64
  %24 = call i64 @llvm.expect.i64(i64 %23, i64 1)
  %25 = icmp ne i64 %24, 0
  br i1 %25, label %26, label %185

26:                                               ; preds = %18
  %27 = load ptr, ptr %5, align 8, !tbaa !8
  %28 = call i64 @H5FD_get_eof(ptr noundef %27, i32 noundef 3)
  %29 = load i64, ptr %6, align 8, !tbaa !10
  %30 = load i64, ptr %9, align 8, !tbaa !10
  %31 = add i64 %29, %30
  %32 = icmp ult i64 %28, %31
  br i1 %32, label %33, label %52

33:                                               ; preds = %26
  br label %34

34:                                               ; preds = %33
  br label %35

35:                                               ; preds = %34
  br label %36

36:                                               ; preds = %35
  %37 = load i64, ptr @H5E_ARGS_g, align 8, !tbaa !10
  %38 = load i64, ptr @H5E_BADVALUE_g, align 8, !tbaa !10
  %39 = call i32 (ptr, ptr, i32, i64, i64, ptr, ...) @H5E_printf_stack(ptr noundef @.str, ptr noundef @__func__.H5FD__onion_ingest_header, i32 noundef 48, i64 noundef %37, i64 noundef %38, ptr noundef @.str.1)
  br label %40

40:                                               ; preds = %36
  br label %41

41:                                               ; preds = %40
  store i8 1, ptr %11, align 1, !tbaa !16
  %42 = load i8, ptr %11, align 1, !tbaa !16, !range !18, !noundef !19
  %43 = trunc i8 %42 to i1
  %44 = zext i1 %43 to i8
  store i8 %44, ptr %11, align 1, !tbaa !16
  br label %45

45:                                               ; preds = %41
  br label %46

46:                                               ; preds = %45
  br label %47

47:                                               ; preds = %46
  store i32 -1, ptr %8, align 4, !tbaa !14
  br label %182

48:                                               ; No predecessors!
  br label %49

49:                                               ; preds = %48
  br label %50

50:                                               ; preds = %49
  br label %51

51:                                               ; preds = %50
  br label %52

52:                                               ; preds = %51, %26
  %53 = load i64, ptr %9, align 8, !tbaa !10
  %54 = mul i64 1, %53
  %55 = call noalias ptr @malloc(i64 noundef %54) #8
  store ptr %55, ptr %7, align 8, !tbaa !12
  %56 = icmp eq ptr null, %55
  br i1 %56, label %57, label %76

57:                                               ; preds = %52
  br label %58

58:                                               ; preds = %57
  br label %59

59:                                               ; preds = %58
  br label %60

60:                                               ; preds = %59
  %61 = load i64, ptr @H5E_VFL_g, align 8, !tbaa !10
  %62 = load i64, ptr @H5E_CANTALLOC_g, align 8, !tbaa !10
  %63 = call i32 (ptr, ptr, i32, i64, i64, ptr, ...) @H5E_printf_stack(ptr noundef @.str, ptr noundef @__func__.H5FD__onion_ingest_header, i32 noundef 51, i64 noundef %61, i64 noundef %62, ptr noundef @.str.2)
  br label %64

64:                                               ; preds = %60
  br label %65

65:                                               ; preds = %64
  store i8 1, ptr %11, align 1, !tbaa !16
  %66 = load i8, ptr %11, align 1, !tbaa !16, !range !18, !noundef !19
  %67 = trunc i8 %66 to i1
  %68 = zext i1 %67 to i8
  store i8 %68, ptr %11, align 1, !tbaa !16
  br label %69

69:                                               ; preds = %65
  br label %70

70:                                               ; preds = %69
  br label %71

71:                                               ; preds = %70
  store i32 -1, ptr %8, align 4, !tbaa !14
  br label %182

72:                                               ; No predecessors!
  br label %73

73:                                               ; preds = %72
  br label %74

74:                                               ; preds = %73
  br label %75

75:                                               ; preds = %74
  br label %76

76:                                               ; preds = %75, %52
  %77 = load ptr, ptr %5, align 8, !tbaa !8
  %78 = load i64, ptr %6, align 8, !tbaa !10
  %79 = load i64, ptr %9, align 8, !tbaa !10
  %80 = add i64 %78, %79
  %81 = call i32 @H5FD_set_eoa(ptr noundef %77, i32 noundef 3, i64 noundef %80)
  %82 = icmp slt i32 %81, 0
  br i1 %82, label %83, label %102

83:                                               ; preds = %76
  br label %84

84:                                               ; preds = %83
  br label %85

85:                                               ; preds = %84
  br label %86

86:                                               ; preds = %85
  %87 = load i64, ptr @H5E_VFL_g, align 8, !tbaa !10
  %88 = load i64, ptr @H5E_CANTSET_g, align 8, !tbaa !10
  %89 = call i32 (ptr, ptr, i32, i64, i64, ptr, ...) @H5E_printf_stack(ptr noundef @.str, ptr noundef @__func__.H5FD__onion_ingest_header, i32 noundef 54, i64 noundef %87, i64 noundef %88, ptr noundef @.str.3)
  br label %90

90:                                               ; preds = %86
  br label %91

91:                                               ; preds = %90
  store i8 1, ptr %11, align 1, !tbaa !16
  %92 = load i8, ptr %11, align 1, !tbaa !16, !range !18, !noundef !19
  %93 = trunc i8 %92 to i1
  %94 = zext i1 %93 to i8
  store i8 %94, ptr %11, align 1, !tbaa !16
  br label %95

95:                                               ; preds = %91
  br label %96

96:                                               ; preds = %95
  br label %97

97:                                               ; preds = %96
  store i32 -1, ptr %8, align 4, !tbaa !14
  br label %182

98:                                               ; No predecessors!
  br label %99

99:                                               ; preds = %98
  br label %100

100:                                              ; preds = %99
  br label %101

101:                                              ; preds = %100
  br label %102

102:                                              ; preds = %101, %76
  %103 = load ptr, ptr %5, align 8, !tbaa !8
  %104 = load i64, ptr %6, align 8, !tbaa !10
  %105 = load i64, ptr %9, align 8, !tbaa !10
  %106 = load ptr, ptr %7, align 8, !tbaa !12
  %107 = call i32 @H5FD_read(ptr noundef %103, i32 noundef 3, i64 noundef %104, i64 noundef %105, ptr noundef %106)
  %108 = icmp slt i32 %107, 0
  br i1 %108, label %109, label %128

109:                                              ; preds = %102
  br label %110

110:                                              ; preds = %109
  br label %111

111:                                              ; preds = %110
  br label %112

112:                                              ; preds = %111
  %113 = load i64, ptr @H5E_VFL_g, align 8, !tbaa !10
  %114 = load i64, ptr @H5E_READERROR_g, align 8, !tbaa !10
  %115 = call i32 (ptr, ptr, i32, i64, i64, ptr, ...) @H5E_printf_stack(ptr noundef @.str, ptr noundef @__func__.H5FD__onion_ingest_header, i32 noundef 57, i64 noundef %113, i64 noundef %114, ptr noundef @.str.4)
  br label %116

116:                                              ; preds = %112
  br label %117

117:                                              ; preds = %116
  store i8 1, ptr %11, align 1, !tbaa !16
  %118 = load i8, ptr %11, align 1, !tbaa !16, !range !18, !noundef !19
  %119 = trunc i8 %118 to i1
  %120 = zext i1 %119 to i8
  store i8 %120, ptr %11, align 1, !tbaa !16
  br label %121

121:                                              ; preds = %117
  br label %122

122:                                              ; preds = %121
  br label %123

123:                                              ; preds = %122
  store i32 -1, ptr %8, align 4, !tbaa !14
  br label %182

124:                                              ; No predecessors!
  br label %125

125:                                              ; preds = %124
  br label %126

126:                                              ; preds = %125
  br label %127

127:                                              ; preds = %126
  br label %128

128:                                              ; preds = %127, %102
  %129 = load ptr, ptr %7, align 8, !tbaa !12
  %130 = load ptr, ptr %4, align 8, !tbaa !3
  %131 = call i64 @H5FD__onion_header_decode(ptr noundef %129, ptr noundef %130)
  %132 = icmp eq i64 %131, 0
  br i1 %132, label %133, label %152

133:                                              ; preds = %128
  br label %134

134:                                              ; preds = %133
  br label %135

135:                                              ; preds = %134
  br label %136

136:                                              ; preds = %135
  %137 = load i64, ptr @H5E_VFL_g, align 8, !tbaa !10
  %138 = load i64, ptr @H5E_CANTDECODE_g, align 8, !tbaa !10
  %139 = call i32 (ptr, ptr, i32, i64, i64, ptr, ...) @H5E_printf_stack(ptr noundef @.str, ptr noundef @__func__.H5FD__onion_ingest_header, i32 noundef 60, i64 noundef %137, i64 noundef %138, ptr noundef @.str.5)
  br label %140

140:                                              ; preds = %136
  br label %141

141:                                              ; preds = %140
  store i8 1, ptr %11, align 1, !tbaa !16
  %142 = load i8, ptr %11, align 1, !tbaa !16, !range !18, !noundef !19
  %143 = trunc i8 %142 to i1
  %144 = zext i1 %143 to i8
  store i8 %144, ptr %11, align 1, !tbaa !16
  br label %145

145:                                              ; preds = %141
  br label %146

146:                                              ; preds = %145
  br label %147

147:                                              ; preds = %146
  store i32 -1, ptr %8, align 4, !tbaa !14
  br label %182

148:                                              ; No predecessors!
  br label %149

149:                                              ; preds = %148
  br label %150

150:                                              ; preds = %149
  br label %151

151:                                              ; preds = %150
  br label %152

152:                                              ; preds = %151, %128
  %153 = load ptr, ptr %7, align 8, !tbaa !12
  %154 = load i64, ptr %9, align 8, !tbaa !10
  %155 = sub i64 %154, 4
  %156 = call i32 @H5_checksum_fletcher32(ptr noundef %153, i64 noundef %155)
  store i32 %156, ptr %10, align 4, !tbaa !14
  %157 = load ptr, ptr %4, align 8, !tbaa !3
  %158 = getelementptr inbounds nuw %struct.H5FD_onion_header_t, ptr %157, i32 0, i32 6
  %159 = load i32, ptr %158, align 8, !tbaa !20
  %160 = load i32, ptr %10, align 4, !tbaa !14
  %161 = icmp ne i32 %159, %160
  br i1 %161, label %162, label %181

162:                                              ; preds = %152
  br label %163

163:                                              ; preds = %162
  br label %164

164:                                              ; preds = %163
  br label %165

165:                                              ; preds = %164
  %166 = load i64, ptr @H5E_VFL_g, align 8, !tbaa !10
  %167 = load i64, ptr @H5E_BADVALUE_g, align 8, !tbaa !10
  %168 = call i32 (ptr, ptr, i32, i64, i64, ptr, ...) @H5E_printf_stack(ptr noundef @.str, ptr noundef @__func__.H5FD__onion_ingest_header, i32 noundef 64, i64 noundef %166, i64 noundef %167, ptr noundef @.str.6)
  br label %169

169:                                              ; preds = %165
  br label %170

170:                                              ; preds = %169
  store i8 1, ptr %11, align 1, !tbaa !16
  %171 = load i8, ptr %11, align 1, !tbaa !16, !range !18, !noundef !19
  %172 = trunc i8 %171 to i1
  %173 = zext i1 %172 to i8
  store i8 %173, ptr %11, align 1, !tbaa !16
  br label %174

174:                                              ; preds = %170
  br label %175

175:                                              ; preds = %174
  br label %176

176:                                              ; preds = %175
  store i32 -1, ptr %8, align 4, !tbaa !14
  br label %182

177:                                              ; No predecessors!
  br label %178

178:                                              ; preds = %177
  br label %179

179:                                              ; preds = %178
  br label %180

180:                                              ; preds = %179
  br label %181

181:                                              ; preds = %180, %152
  br label %182

182:                                              ; preds = %181, %176, %147, %123, %97, %71, %47
  %183 = load ptr, ptr %7, align 8, !tbaa !12
  %184 = call ptr @H5MM_xfree(ptr noundef %183)
  br label %185

185:                                              ; preds = %182, %18
  %186 = load i32, ptr %8, align 4, !tbaa !14
  call void @llvm.lifetime.end.p0(i64 1, ptr %11) #7
  call void @llvm.lifetime.end.p0(i64 4, ptr %10) #7
  call void @llvm.lifetime.end.p0(i64 8, ptr %9) #7
  call void @llvm.lifetime.end.p0(i64 4, ptr %8) #7
  call void @llvm.lifetime.end.p0(i64 8, ptr %7) #7
  ret i32 %186
}