; Function Attrs: nounwind uwtable
define range(i32 -1, 1) i32 @H5FD__onion_ingest_header(ptr noundef captures(none) %0, ptr noundef %1, i64 noundef %2) local_unnamed_addr #0 {
  %4 = load i8, ptr @H5FD_init_g, align 1, !tbaa !3, !range !7, !noundef !8
  %5 = trunc nuw i8 %4 to i1
  %6 = load i8, ptr @H5_libterm_g, align 1, !range !7
  %7 = trunc nuw i8 %6 to i1
  %8 = xor i1 %7, true
  %9 = select i1 %5, i1 true, i1 %8
  br i1 %9, label %10, label %56, !prof !9

10:                                               ; preds = %3
  %11 = tail call i64 @H5FD_get_eof(ptr noundef %1, i32 noundef 3) #5
  %12 = add i64 %2, 40
  %13 = icmp ult i64 %11, %12
  br i1 %13, label %14, label %18

14:                                               ; preds = %10
  %15 = load i64, ptr @H5E_ARGS_g, align 8, !tbaa !10
  %16 = load i64, ptr @H5E_BADVALUE_g, align 8, !tbaa !10
  %17 = tail call i32 (ptr, ptr, i32, i64, i64, ptr, ...) @H5E_printf_stack(ptr noundef nonnull @.str, ptr noundef nonnull @__func__.H5FD__onion_ingest_header, i32 noundef 48, i64 noundef %15, i64 noundef %16, ptr noundef nonnull @.str.1) #5
  br label %54

18:                                               ; preds = %10
  %19 = tail call noalias dereferenceable_or_null(40) ptr @malloc(i64 noundef 40) #6
  %20 = icmp eq ptr %19, null
  br i1 %20, label %21, label %25

21:                                               ; preds = %18
  %22 = load i64, ptr @H5E_VFL_g, align 8, !tbaa !10
  %23 = load i64, ptr @H5E_CANTALLOC_g, align 8, !tbaa !10
  %24 = tail call i32 (ptr, ptr, i32, i64, i64, ptr, ...) @H5E_printf_stack(ptr noundef nonnull @.str, ptr noundef nonnull @__func__.H5FD__onion_ingest_header, i32 noundef 51, i64 noundef %22, i64 noundef %23, ptr noundef nonnull @.str.2) #5
  br label %54

25:                                               ; preds = %18
  %26 = tail call i32 @H5FD_set_eoa(ptr noundef %1, i32 noundef 3, i64 noundef %12) #5
  %27 = icmp slt i32 %26, 0
  br i1 %27, label %28, label %32

28:                                               ; preds = %25
  %29 = load i64, ptr @H5E_VFL_g, align 8, !tbaa !10
  %30 = load i64, ptr @H5E_CANTSET_g, align 8, !tbaa !10
  %31 = tail call i32 (ptr, ptr, i32, i64, i64, ptr, ...) @H5E_printf_stack(ptr noundef nonnull @.str, ptr noundef nonnull @__func__.H5FD__onion_ingest_header, i32 noundef 54, i64 noundef %29, i64 noundef %30, ptr noundef nonnull @.str.3) #5
  br label %54

32:                                               ; preds = %25
  %33 = tail call i32 @H5FD_read(ptr noundef %1, i32 noundef 3, i64 noundef %2, i64 noundef 40, ptr noundef nonnull %19) #5
  %34 = icmp slt i32 %33, 0
  br i1 %34, label %35, label %39

35:                                               ; preds = %32
  %36 = load i64, ptr @H5E_VFL_g, align 8, !tbaa !10
  %37 = load i64, ptr @H5E_READERROR_g, align 8, !tbaa !10
  %38 = tail call i32 (ptr, ptr, i32, i64, i64, ptr, ...) @H5E_printf_stack(ptr noundef nonnull @.str, ptr noundef nonnull @__func__.H5FD__onion_ingest_header, i32 noundef 57, i64 noundef %36, i64 noundef %37, ptr noundef nonnull @.str.4) #5
  br label %54

39:                                               ; preds = %32
  %40 = tail call i64 @H5FD__onion_header_decode(ptr noundef nonnull %19, ptr noundef %0)
  %41 = icmp eq i64 %40, 0
  br i1 %41, label %42, label %46

42:                                               ; preds = %39
  %43 = load i64, ptr @H5E_VFL_g, align 8, !tbaa !10
  %44 = load i64, ptr @H5E_CANTDECODE_g, align 8, !tbaa !10
  %45 = tail call i32 (ptr, ptr, i32, i64, i64, ptr, ...) @H5E_printf_stack(ptr noundef nonnull @.str, ptr noundef nonnull @__func__.H5FD__onion_ingest_header, i32 noundef 60, i64 noundef %43, i64 noundef %44, ptr noundef nonnull @.str.5) #5
  br label %54

46:                                               ; preds = %39
  %47 = tail call i32 @H5_checksum_fletcher32(ptr noundef nonnull %19, i64 noundef 36) #5
  %48 = getelementptr inbounds nuw i8, ptr %0, i64 40
  %49 = load i32, ptr %48, align 8, !tbaa !12
  %.not = icmp eq i32 %49, %47
  br i1 %.not, label %54, label %50

50:                                               ; preds = %46
  %51 = load i64, ptr @H5E_VFL_g, align 8, !tbaa !10
  %52 = load i64, ptr @H5E_BADVALUE_g, align 8, !tbaa !10
  %53 = tail call i32 (ptr, ptr, i32, i64, i64, ptr, ...) @H5E_printf_stack(ptr noundef nonnull @.str, ptr noundef nonnull @__func__.H5FD__onion_ingest_header, i32 noundef 64, i64 noundef %51, i64 noundef %52, ptr noundef nonnull @.str.6) #5
  br label %54

54:                                               ; preds = %46, %50, %42, %35, %28, %21, %14
  %.1 = phi i32 [ -1, %14 ], [ -1, %21 ], [ -1, %28 ], [ -1, %35 ], [ -1, %42 ], [ -1, %50 ], [ 0, %46 ]
  %.0 = phi ptr [ null, %14 ], [ null, %21 ], [ %19, %28 ], [ %19, %35 ], [ %19, %42 ], [ %19, %50 ], [ %19, %46 ]
  %55 = tail call ptr @H5MM_xfree(ptr noundef %.0) #5
  br label %56

56:                                               ; preds = %54, %3
  %.024 = phi i32 [ %.1, %54 ], [ 0, %3 ]
  ret i32 %.024
}